; Function Attrs: mustprogress nounwind uwtable
define internal fastcc void @_ZN6hermes12_GLOBAL__N_116ESTreeJSONDumper8dumpNodeERN4llvh12simple_ilistINS_6ESTree4NodeEJEEE(ptr noundef nonnull align 8 dereferenceable(72) %this, ptr noundef nonnull readonly align 8 dereferenceable(16) %list) unnamed_addr #0 align 2 {
entry:
  %0 = load ptr, ptr %this, align 8
  tail call void @_ZN6hermes11JSONEmitter9openArrayEv(ptr noundef nonnull align 8 dereferenceable(72) %0) #7
  %__begin2.sroa.0.0.in4 = getelementptr inbounds nuw i8, ptr %list, i64 8
  %__begin2.sroa.0.05 = load ptr, ptr %__begin2.sroa.0.0.in4, align 8
  %cmp.i.not6 = icmp eq ptr %__begin2.sroa.0.05, %list
  br i1 %cmp.i.not6, label %for.end, label %for.body

for.body:                                         ; preds = %entry, %for.body
  %__begin2.sroa.0.07 = phi ptr [ %__begin2.sroa.0.0, %for.body ], [ %__begin2.sroa.0.05, %entry ]
  tail call fastcc void @_ZN6hermes12_GLOBAL__N_116ESTreeJSONDumper8dumpNodeEPNS_6ESTree4NodeE(ptr noundef nonnull align 8 dereferenceable(72) %this, ptr noundef nonnull %__begin2.sroa.0.07)
  %__begin2.sroa.0.0.in = getelementptr inbounds nuw i8, ptr %__begin2.sroa.0.07, i64 8
  %__begin2.sroa.0.0 = load ptr, ptr %__begin2.sroa.0.0.in, align 8
  %cmp.i.not = icmp eq ptr %__begin2.sroa.0.0, %list
  br i1 %cmp.i.not, label %for.end, label %for.body

for.end:                                          ; preds = %for.body, %entry
  %1 = load ptr, ptr %this, align 8
  tail call void @_ZN6hermes11JSONEmitter10closeArrayEv(ptr noundef nonnull align 8 dereferenceable(72) %1) #7
  ret void
}